; Function Attrs: mustprogress uwtable
define noundef ptr @_ZNK6icu_776number24LocalizedNumberFormatter8toFormatER10UErrorCode(ptr noundef nonnull align 8 dereferenceable(496) %0, ptr noundef nonnull align 4 captures(none) dereferenceable(4) %1) local_unnamed_addr #1 align 2 personality ptr @__gxx_personality_v0 {
  %3 = load i32, ptr %1, align 4, !tbaa !13
  %4 = icmp slt i32 %3, 1
  br i1 %4, label %5, label %_ZN6icu_7712LocalPointerINS_6number4impl32LocalizedNumberFormatterAsFormatEED2Ev.exit

5:                                                ; preds = %2
  %6 = tail call noundef ptr @_ZN6icu_777UMemorynwEm(i64 noundef 744) #15
  %7 = icmp eq ptr %6, null
  br i1 %7, label %10, label %8

8:                                                ; preds = %5
  %9 = getelementptr inbounds nuw i8, ptr %0, i64 248
  invoke void @_ZN6icu_776number4impl32LocalizedNumberFormatterAsFormatC1ERKNS0_24LocalizedNumberFormatterERKNS_6LocaleE(ptr noundef nonnull align 8 dereferenceable(744) %6, ptr noundef nonnull align 8 dereferenceable(496) %0, ptr noundef nonnull align 8 dereferenceable(217) %9)
          to label %_ZN6icu_7712LocalPointerINS_6number4impl32LocalizedNumberFormatterAsFormatEED2Ev.exit unwind label %14

10:                                               ; preds = %5
  %11 = load i32, ptr %1, align 4
  %12 = icmp sgt i32 %11, 0
  br i1 %12, label %_ZN6icu_7712LocalPointerINS_6number4impl32LocalizedNumberFormatterAsFormatEED2Ev.exit, label %13

13:                                               ; preds = %10
  store i32 7, ptr %1, align 4, !tbaa !13
  br label %_ZN6icu_7712LocalPointerINS_6number4impl32LocalizedNumberFormatterAsFormatEED2Ev.exit

14:                                               ; preds = %8
  %15 = landingpad { ptr, i32 }
          cleanup
  tail call void @_ZN6icu_777UMemorydlEPv(ptr noundef nonnull %6) #15
  resume { ptr, i32 } %15

_ZN6icu_7712LocalPointerINS_6number4impl32LocalizedNumberFormatterAsFormatEED2Ev.exit: ; preds = %8, %10, %13, %2
  %.0 = phi ptr [ null, %2 ], [ null, %10 ], [ null, %13 ], [ %6, %8 ]
  ret ptr %.0
}